; Function Attrs: mustprogress nofree norecurse nosync nounwind willreturn memory(none) uwtable
define dso_local noundef nonnull ptr @schedule_exit2string(i16 noundef zeroext %0) local_unnamed_addr #0 {
  %2 = icmp ult i16 %0, 6
  br i1 %2, label %switch.lookup, label %4

switch.lookup:                                    ; preds = %1
  %3 = zext nneg i16 %0 to i64
  %switch.gep = getelementptr inbounds nuw [6 x ptr], ptr @switch.table.schedule_exit2string, i64 0, i64 %3
  %switch.load = load ptr, ptr %switch.gep, align 8
  br label %4

4:                                                ; preds = %1, %switch.lookup
  %.0 = phi ptr [ %switch.load, %switch.lookup ], [ @.str.62, %1 ]
  ret ptr %.0
}